; Function Attrs: nounwind uwtable
define dso_local void @list_iterator_destroy(ptr noundef %0) #0 {
  %2 = alloca ptr, align 8
  store ptr %0, ptr %2, align 8
  %3 = getelementptr inbounds nuw i8, ptr %0, i64 8
  %4 = load ptr, ptr %3, align 8
  %5 = getelementptr inbounds nuw i8, ptr %4, i64 40
  %6 = tail call i32 @pthread_rwlock_wrlock(ptr noundef nonnull %5) #9
  %.not = icmp eq i32 %6, 0
  br i1 %.not, label %9, label %7

7:                                                ; preds = %1
  %8 = tail call ptr @__errno_location() #10
  store i32 %6, ptr %8, align 4
  tail call void (ptr, ...) @fatal_abort(ptr noundef nonnull @.str.2, ptr noundef nonnull @__func__.list_iterator_destroy) #11
  unreachable

9:                                                ; preds = %1
  %10 = load ptr, ptr %3, align 8
  %11 = getelementptr inbounds nuw i8, ptr %10, i64 24
  %12 = load ptr, ptr %11, align 8
  %.not1115 = icmp eq ptr %12, null
  br i1 %.not1115, label %.loopexit, label %.lr.ph.preheader

.lr.ph.preheader:                                 ; preds = %9
  %13 = icmp eq ptr %12, %0
  br i1 %13, label %.lr.ph._crit_edge, label %.lr.ph23

.lr.ph:                                           ; preds = %.lr.ph23
  %14 = icmp eq ptr %20, %0
  br i1 %14, label %.lr.ph._crit_edge.loopexit, label %.lr.ph23, !llvm.loop !30

.lr.ph._crit_edge.loopexit:                       ; preds = %.lr.ph
  %15 = getelementptr inbounds nuw i8, ptr %18, i64 32
  br label %.lr.ph._crit_edge

.lr.ph._crit_edge:                                ; preds = %.lr.ph._crit_edge.loopexit, %.lr.ph.preheader
  %.lcssa = phi ptr [ %12, %.lr.ph.preheader ], [ %20, %.lr.ph._crit_edge.loopexit ]
  %.016.lcssa = phi ptr [ %11, %.lr.ph.preheader ], [ %15, %.lr.ph._crit_edge.loopexit ]
  %16 = getelementptr inbounds nuw i8, ptr %.lcssa, i64 32
  %17 = load ptr, ptr %16, align 8
  store ptr %17, ptr %.016.lcssa, align 8
  %.pre = load ptr, ptr %3, align 8
  br label %.loopexit

.lr.ph23:                                         ; preds = %.lr.ph.preheader, %.lr.ph
  %18 = phi ptr [ %20, %.lr.ph ], [ %12, %.lr.ph.preheader ]
  %19 = getelementptr inbounds nuw i8, ptr %18, i64 32
  %20 = load ptr, ptr %19, align 8
  %.not11 = icmp eq ptr %20, null
  br i1 %.not11, label %.loopexit, label %.lr.ph, !llvm.loop !30

.loopexit:                                        ; preds = %.lr.ph23, %9, %.lr.ph._crit_edge
  %21 = phi ptr [ %10, %9 ], [ %.pre, %.lr.ph._crit_edge ], [ %10, %.lr.ph23 ]
  %22 = getelementptr inbounds nuw i8, ptr %21, i64 40
  %23 = tail call i32 @pthread_rwlock_unlock(ptr noundef nonnull %22) #9
  %.not12 = icmp eq i32 %23, 0
  br i1 %.not12, label %26, label %24

24:                                               ; preds = %.loopexit
  %25 = tail call ptr @__errno_location() #10
  store i32 %23, ptr %25, align 4
  tail call void (ptr, ...) @fatal_abort(ptr noundef nonnull @.str.3, ptr noundef nonnull @__func__.list_iterator_destroy) #11
  unreachable

26:                                               ; preds = %.loopexit
  store i32 559038720, ptr %0, align 8
  call void @slurm_xfree(ptr noundef nonnull %2) #9
  ret void
}